; Function Attrs: nounwind uwtable
define void @Abc_NtkFinalize(ptr noundef %0, ptr noundef %1) local_unnamed_addr #0 {
  %3 = getelementptr i8, ptr %0, i64 64
  %.val25 = load ptr, ptr %3, align 8, !tbaa !34
  %4 = getelementptr i8, ptr %.val25, i64 4
  %.val.val26 = load i32, ptr %4, align 4, !tbaa !25
  %5 = icmp sgt i32 %.val.val26, 0
  br i1 %5, label %.lr.ph, label %.critedge

.lr.ph:                                           ; preds = %2, %Abc_ObjFanin0Ntk.exit
  %indvars.iv = phi i64 [ %indvars.iv.next, %Abc_ObjFanin0Ntk.exit ], [ 0, %2 ]
  %.val28 = phi ptr [ %.val, %Abc_ObjFanin0Ntk.exit ], [ %.val25, %2 ]
  %6 = getelementptr i8, ptr %.val28, i64 8
  %.val21.val = load ptr, ptr %6, align 8, !tbaa !28
  %7 = getelementptr inbounds nuw ptr, ptr %.val21.val, i64 %indvars.iv
  %8 = load ptr, ptr %7, align 8, !tbaa !40
  %.val22 = load ptr, ptr %8, align 8, !tbaa !75
  %9 = getelementptr i8, ptr %8, i64 32
  %.val23 = load ptr, ptr %9, align 8, !tbaa !78
  %10 = getelementptr i8, ptr %.val22, i64 32
  %.val22.val = load ptr, ptr %10, align 8, !tbaa !29
  %.val23.val = load i32, ptr %.val23, align 4, !tbaa !57
  %11 = getelementptr i8, ptr %.val22.val, i64 8
  %.val22.val.val = load ptr, ptr %11, align 8, !tbaa !28
  %12 = sext i32 %.val23.val to i64
  %13 = getelementptr inbounds ptr, ptr %.val22.val.val, i64 %12
  %14 = load ptr, ptr %13, align 8, !tbaa !40
  %15 = load ptr, ptr %14, align 8, !tbaa !75
  %.val4.i = load i32, ptr %15, align 8, !tbaa !3
  %.not.i = icmp eq i32 %.val4.i, 1
  br i1 %.not.i, label %16, label %Abc_ObjFanin0Ntk.exit

16:                                               ; preds = %.lr.ph
  %17 = getelementptr i8, ptr %14, i64 32
  %.val3.i = load ptr, ptr %17, align 8, !tbaa !78
  %18 = getelementptr i8, ptr %15, i64 32
  %.val.val.i = load ptr, ptr %18, align 8, !tbaa !29
  %.val3.val.i = load i32, ptr %.val3.i, align 4, !tbaa !57
  %19 = getelementptr i8, ptr %.val.val.i, i64 8
  %.val.val.val.i = load ptr, ptr %19, align 8, !tbaa !28
  %20 = sext i32 %.val3.val.i to i64
  %21 = getelementptr inbounds ptr, ptr %.val.val.val.i, i64 %20
  %22 = load ptr, ptr %21, align 8, !tbaa !40
  br label %Abc_ObjFanin0Ntk.exit

Abc_ObjFanin0Ntk.exit:                            ; preds = %.lr.ph, %16
  %23 = phi ptr [ %22, %16 ], [ %14, %.lr.ph ]
  %24 = getelementptr inbounds nuw i8, ptr %23, i64 64
  %25 = load ptr, ptr %24, align 8, !tbaa !49
  %26 = getelementptr i8, ptr %8, i64 20
  %.val24 = load i32, ptr %26, align 4
  %27 = lshr i32 %.val24, 10
  %28 = and i32 %27, 1
  %29 = ptrtoint ptr %25 to i64
  %30 = zext nneg i32 %28 to i64
  %31 = xor i64 %30, %29
  %32 = inttoptr i64 %31 to ptr
  %33 = getelementptr inbounds nuw i8, ptr %8, i64 64
  %34 = load ptr, ptr %33, align 8, !tbaa !49
  tail call void @Abc_ObjAddFanin(ptr noundef %34, ptr noundef %32) #20
  %indvars.iv.next = add nuw nsw i64 %indvars.iv, 1
  %.val = load ptr, ptr %3, align 8, !tbaa !34
  %35 = getelementptr i8, ptr %.val, i64 4
  %.val.val = load i32, ptr %35, align 4, !tbaa !25
  %36 = sext i32 %.val.val to i64
  %37 = icmp slt i64 %indvars.iv.next, %36
  br i1 %37, label %.lr.ph, label %.critedge, !llvm.loop !79

.critedge:                                        ; preds = %Abc_ObjFanin0Ntk.exit, %2
  %38 = getelementptr inbounds nuw i8, ptr %0, i64 264
  %39 = load ptr, ptr %38, align 8, !tbaa !62
  %.not = icmp eq ptr %39, null
  br i1 %.not, label %41, label %40

40:                                               ; preds = %.critedge
  tail call void @Abc_NtkTimeInitialize(ptr noundef %1, ptr noundef nonnull %0) #20
  br label %41

41:                                               ; preds = %40, %.critedge
  %42 = getelementptr inbounds nuw i8, ptr %0, i64 384
  %43 = load ptr, ptr %42, align 8, !tbaa !80
  %.not19 = icmp eq ptr %43, null
  br i1 %.not19, label %45, label %44

44:                                               ; preds = %41
  tail call void @Abc_NtkTransferPhases(ptr noundef %1, ptr noundef nonnull %0) #20
  br label %45

45:                                               ; preds = %44, %41
  %46 = getelementptr inbounds nuw i8, ptr %0, i64 392
  %47 = load ptr, ptr %46, align 8, !tbaa !81
  %.not20 = icmp eq ptr %47, null
  br i1 %.not20, label %54, label %48

48:                                               ; preds = %45
  %49 = tail call i64 @strlen(ptr noundef nonnull readonly dereferenceable(1) %47) #22
  %50 = add i64 %49, 1
  %51 = tail call noalias noundef ptr @malloc(i64 noundef %50) #19
  %52 = tail call ptr @strcpy(ptr noundef nonnull dereferenceable(1) %51, ptr noundef nonnull readonly dereferenceable(1) %47) #20
  %53 = getelementptr inbounds nuw i8, ptr %1, i64 392
  store ptr %51, ptr %53, align 8, !tbaa !81
  br label %54

54:                                               ; preds = %48, %45
  ret void
}